; Function Attrs: mustprogress ssp uwtable
define noundef i32 @_ZN6open3d7utility6random10RandUint32Ev() local_unnamed_addr #0 personality ptr @__gxx_personality_v0 {
  %1 = load atomic i8, ptr @_ZGVZN6open3d7utility6random13RandomContext11GetInstanceEvE8instance acquire, align 8
  %2 = icmp eq i8 %1, 0
  br i1 %2, label %3, label %_ZN6open3d7utility6random8GetMutexEv.exit, !prof !4

3:                                                ; preds = %0
  %4 = tail call i32 @__cxa_guard_acquire(ptr nonnull @_ZGVZN6open3d7utility6random13RandomContext11GetInstanceEvE8instance) #13
  %.not.i.i = icmp eq i32 %4, 0
  br i1 %.not.i.i, label %_ZN6open3d7utility6random8GetMutexEv.exit, label %5

5:                                                ; preds = %3
  invoke void @_ZN6open3d7utility6random13RandomContextC2Ev(ptr noundef nonnull align 8 dereferenceable(5048) @_ZZN6open3d7utility6random13RandomContext11GetInstanceEvE8instance)
          to label %6 unwind label %7

6:                                                ; preds = %5
  tail call void @__cxa_guard_release(ptr nonnull @_ZGVZN6open3d7utility6random13RandomContext11GetInstanceEvE8instance) #13
  br label %_ZN6open3d7utility6random8GetMutexEv.exit

common.resume:                                    ; preds = %.body, %7
  %common.resume.op = phi { ptr, i32 } [ %8, %7 ], [ %eh.lpad-body, %.body ]
  resume { ptr, i32 } %common.resume.op

7:                                                ; preds = %5
  %8 = landingpad { ptr, i32 }
          cleanup
  tail call void @__cxa_guard_abort(ptr nonnull @_ZGVZN6open3d7utility6random13RandomContext11GetInstanceEvE8instance) #13
  br label %common.resume

_ZN6open3d7utility6random8GetMutexEv.exit:        ; preds = %0, %3, %6
  %9 = tail call noundef i32 @pthread_mutex_lock(ptr noundef nonnull align 8 dereferenceable(40) getelementptr inbounds nuw (i8, ptr @_ZZN6open3d7utility6random13RandomContext11GetInstanceEvE8instance, i64 5008)) #13
  %.not.i.i1 = icmp eq i32 %9, 0
  br i1 %.not.i.i1, label %_ZNSt10lock_guardISt5mutexEC2ERS0_.exit, label %10

10:                                               ; preds = %_ZN6open3d7utility6random8GetMutexEv.exit
  tail call void @_ZSt20__throw_system_errori(i32 noundef %9) #16
  unreachable

_ZNSt10lock_guardISt5mutexEC2ERS0_.exit:          ; preds = %_ZN6open3d7utility6random8GetMutexEv.exit
  %11 = load atomic i8, ptr @_ZGVZN6open3d7utility6random13RandomContext11GetInstanceEvE8instance acquire, align 8
  %12 = icmp eq i8 %11, 0
  br i1 %12, label %13, label %_ZN6open3d7utility6random9GetEngineEv.exit, !prof !4

13:                                               ; preds = %_ZNSt10lock_guardISt5mutexEC2ERS0_.exit
  %14 = tail call i32 @__cxa_guard_acquire(ptr nonnull @_ZGVZN6open3d7utility6random13RandomContext11GetInstanceEvE8instance) #13
  %.not.i.i2 = icmp eq i32 %14, 0
  br i1 %.not.i.i2, label %_ZN6open3d7utility6random9GetEngineEv.exit, label %15

15:                                               ; preds = %13
  invoke void @_ZN6open3d7utility6random13RandomContextC2Ev(ptr noundef nonnull align 8 dereferenceable(5048) @_ZZN6open3d7utility6random13RandomContext11GetInstanceEvE8instance)
          to label %16 unwind label %17

16:                                               ; preds = %15
  tail call void @__cxa_guard_release(ptr nonnull @_ZGVZN6open3d7utility6random13RandomContext11GetInstanceEvE8instance) #13
  br label %_ZN6open3d7utility6random9GetEngineEv.exit

17:                                               ; preds = %15
  %18 = landingpad { ptr, i32 }
          cleanup
  tail call void @__cxa_guard_abort(ptr nonnull @_ZGVZN6open3d7utility6random13RandomContext11GetInstanceEvE8instance) #13
  br label %.body

_ZN6open3d7utility6random9GetEngineEv.exit:       ; preds = %16, %13, %_ZNSt10lock_guardISt5mutexEC2ERS0_.exit
  %19 = invoke noundef i64 @_ZNSt23mersenne_twister_engineImLm32ELm624ELm397ELm31ELm2567483615ELm11ELm4294967295ELm7ELm2636928640ELm15ELm4022730752ELm18ELm1812433253EEclEv(ptr noundef nonnull align 8 dereferenceable(5000) getelementptr inbounds nuw (i8, ptr @_ZZN6open3d7utility6random13RandomContext11GetInstanceEvE8instance, i64 8))
          to label %20 unwind label %23

20:                                               ; preds = %_ZN6open3d7utility6random9GetEngineEv.exit
  %21 = trunc i64 %19 to i32
  %22 = tail call noundef i32 @pthread_mutex_unlock(ptr noundef nonnull align 8 dereferenceable(40) getelementptr inbounds nuw (i8, ptr @_ZZN6open3d7utility6random13RandomContext11GetInstanceEvE8instance, i64 5008)) #13
  ret i32 %21

23:                                               ; preds = %_ZN6open3d7utility6random9GetEngineEv.exit
  %24 = landingpad { ptr, i32 }
          cleanup
  br label %.body

.body:                                            ; preds = %17, %23
  %eh.lpad-body = phi { ptr, i32 } [ %24, %23 ], [ %18, %17 ]
  %25 = tail call noundef i32 @pthread_mutex_unlock(ptr noundef nonnull align 8 dereferenceable(40) getelementptr inbounds nuw (i8, ptr @_ZZN6open3d7utility6random13RandomContext11GetInstanceEvE8instance, i64 5008)) #13
  br label %common.resume
}